target datalayout = "e-m:e-p270:32:32-p271:32:32-p272:64:64-i64:64-i128:128-f80:128-n8:16:32:64-S128"
target triple = "x86_64-pc-linux-gnu"

%struct.Sbd_Str_t_ = type { i32, i32, [10 x i32], i64 }

; Function Attrs: nounwind uwtable
define internal i32 @Abc_Var2Lit(i32 noundef %0, i32 noundef %1) #0 {
  %3 = alloca i32, align 4
  %4 = alloca i32, align 4
  store i32 %0, ptr %3, align 4
  store i32 %1, ptr %4, align 4
  %5 = load i32, ptr %3, align 4
  %6 = load i32, ptr %3, align 4
  %7 = add nsw i32 %5, %6
  %8 = load i32, ptr %4, align 4
  %9 = add nsw i32 %7, %8
  ret i32 %9
}

; Function Attrs: nounwind uwtable
define void @Sbd_ProblemAddClausesInit(ptr noundef %0, i32 noundef %1, i32 noundef %2, ptr noundef %3, ptr noundef %4) #0 {
  %6 = alloca ptr, align 8
  %7 = alloca i32, align 4
  %8 = alloca i32, align 4
  %9 = alloca ptr, align 8
  %10 = alloca ptr, align 8
  %11 = alloca ptr, align 8
  %12 = alloca i32, align 4
  %13 = alloca i32, align 4
  %14 = alloca i32, align 4
  %15 = alloca i32, align 4
  %16 = alloca [10 x i32], align 16
  store ptr %0, ptr %6, align 8
  store i32 %1, ptr %7, align 4
  store i32 %2, ptr %8, align 4
  store ptr %3, ptr %9, align 8
  store ptr %4, ptr %10, align 8
  %17 = load i32, ptr %7, align 4
  %18 = load i32, ptr %8, align 4
  %19 = add nsw i32 %17, %18
  store i32 %19, ptr %12, align 4
  %20 = load ptr, ptr %10, align 8
  store ptr %20, ptr %11, align 8
  br label %21

21:                                               ; preds = %127, %5
  %22 = load ptr, ptr %11, align 8
  %23 = load ptr, ptr %10, align 8
  %24 = load i32, ptr %8, align 4
  %25 = sext i32 %24 to i64
  %26 = getelementptr inbounds %struct.Sbd_Str_t_, ptr %23, i64 %25
  %27 = icmp ult ptr %22, %26
  br i1 %27, label %28, label %133

28:                                               ; preds = %21
  %29 = load ptr, ptr %11, align 8
  %30 = getelementptr inbounds %struct.Sbd_Str_t_, ptr %29, i32 0, i32 0
  %31 = load i32, ptr %30, align 8
  %32 = icmp ne i32 %31, 0
  br i1 %32, label %33, label %34

33:                                               ; preds = %28
  br label %113

34:                                               ; preds = %28
  store i32 0, ptr %13, align 4
  br label %35

35:                                               ; preds = %53, %34
  %36 = load i32, ptr %13, align 4
  %37 = load ptr, ptr %11, align 8
  %38 = getelementptr inbounds %struct.Sbd_Str_t_, ptr %37, i32 0, i32 1
  %39 = load i32, ptr %38, align 4
  %40 = icmp slt i32 %36, %39
  br i1 %40, label %41, label %56

41:                                               ; preds = %35
  %42 = load ptr, ptr %9, align 8
  %43 = load i32, ptr %12, align 4
  %44 = load i32, ptr %13, align 4
  %45 = add nsw i32 %43, %44
  %46 = sext i32 %45 to i64
  %47 = getelementptr inbounds i32, ptr %42, i64 %46
  %48 = load i32, ptr %47, align 4
  %49 = call i32 @Abc_Var2Lit(i32 noundef %48, i32 noundef 0)
  %50 = load i32, ptr %13, align 4
  %51 = sext i32 %50 to i64
  %52 = getelementptr inbounds [10 x i32], ptr %16, i64 0, i64 %51
  store i32 %49, ptr %52, align 4
  br label %53

53:                                               ; preds = %41
  %54 = load i32, ptr %13, align 4
  %55 = add nsw i32 %54, 1
  store i32 %55, ptr %13, align 4
  br label %35, !llvm.loop !12

56:                                               ; preds = %35
  %57 = load ptr, ptr %6, align 8
  %58 = getelementptr inbounds [10 x i32], ptr %16, i64 0, i64 0
  %59 = getelementptr inbounds [10 x i32], ptr %16, i64 0, i64 0
  %60 = load ptr, ptr %11, align 8
  %61 = getelementptr inbounds %struct.Sbd_Str_t_, ptr %60, i32 0, i32 1
  %62 = load i32, ptr %61, align 4
  %63 = sext i32 %62 to i64
  %64 = getelementptr inbounds i32, ptr %59, i64 %63
  %65 = call i32 @sat_solver_addclause(ptr noundef %57, ptr noundef %58, ptr noundef %64)
  store i32 %65, ptr %15, align 4
  store i32 0, ptr %13, align 4
  br label %66

66:                                               ; preds = %109, %56
  %67 = load i32, ptr %13, align 4
  %68 = load ptr, ptr %11, align 8
  %69 = getelementptr inbounds %struct.Sbd_Str_t_, ptr %68, i32 0, i32 1
  %70 = load i32, ptr %69, align 4
  %71 = icmp slt i32 %67, %70
  br i1 %71, label %72, label %112

72:                                               ; preds = %66
  %73 = load i32, ptr %13, align 4
  %74 = add nsw i32 %73, 1
  store i32 %74, ptr %14, align 4
  br label %75

75:                                               ; preds = %105, %72
  %76 = load i32, ptr %14, align 4
  %77 = load ptr, ptr %11, align 8
  %78 = getelementptr inbounds %struct.Sbd_Str_t_, ptr %77, i32 0, i32 1
  %79 = load i32, ptr %78, align 4
  %80 = icmp slt i32 %76, %79
  br i1 %80, label %81, label %108

81:                                               ; preds = %75
  %82 = load ptr, ptr %9, align 8
  %83 = load i32, ptr %12, align 4
  %84 = load i32, ptr %13, align 4
  %85 = add nsw i32 %83, %84
  %86 = sext i32 %85 to i64
  %87 = getelementptr inbounds i32, ptr %82, i64 %86
  %88 = load i32, ptr %87, align 4
  %89 = call i32 @Abc_Var2Lit(i32 noundef %88, i32 noundef 1)
  %90 = getelementptr inbounds [10 x i32], ptr %16, i64 0, i64 0
  store i32 %89, ptr %90, align 16
  %91 = load ptr, ptr %9, align 8
  %92 = load i32, ptr %12, align 4
  %93 = load i32, ptr %14, align 4
  %94 = add nsw i32 %92, %93
  %95 = sext i32 %94 to i64
  %96 = getelementptr inbounds i32, ptr %91, i64 %95
  %97 = load i32, ptr %96, align 4
  %98 = call i32 @Abc_Var2Lit(i32 noundef %97, i32 noundef 1)
  %99 = getelementptr inbounds [10 x i32], ptr %16, i64 0, i64 1
  store i32 %98, ptr %99, align 4
  %100 = load ptr, ptr %6, align 8
  %101 = getelementptr inbounds [10 x i32], ptr %16, i64 0, i64 0
  %102 = getelementptr inbounds [10 x i32], ptr %16, i64 0, i64 0
  %103 = getelementptr inbounds i32, ptr %102, i64 2
  %104 = call i32 @sat_solver_addclause(ptr noundef %100, ptr noundef %101, ptr noundef %103)
  store i32 %104, ptr %15, align 4
  br label %105

105:                                              ; preds = %81
  %106 = load i32, ptr %14, align 4
  %107 = add nsw i32 %106, 1
  store i32 %107, ptr %14, align 4
  br label %75, !llvm.loop !13

108:                                              ; preds = %75
  br label %109

109:                                              ; preds = %108
  %110 = load i32, ptr %13, align 4
  %111 = add nsw i32 %110, 1
  store i32 %111, ptr %13, align 4
  br label %66, !llvm.loop !14

112:                                              ; preds = %66
  br label %113

113:                                              ; preds = %112, %33
  %114 = load ptr, ptr %11, align 8
  %115 = getelementptr inbounds %struct.Sbd_Str_t_, ptr %114, i32 0, i32 0
  %116 = load i32, ptr %115, align 8
  %117 = icmp ne i32 %116, 0
  br i1 %117, label %118, label %123

118:                                              ; preds = %113
  %119 = load ptr, ptr %11, align 8
  %120 = getelementptr inbounds %struct.Sbd_Str_t_, ptr %119, i32 0, i32 1
  %121 = load i32, ptr %120, align 4
  %122 = shl i32 1, %121
  br label %127

123:                                              ; preds = %113
  %124 = load ptr, ptr %11, align 8
  %125 = getelementptr inbounds %struct.Sbd_Str_t_, ptr %124, i32 0, i32 1
  %126 = load i32, ptr %125, align 4
  br label %127

127:                                              ; preds = %123, %118
  %128 = phi i32 [ %122, %118 ], [ %126, %123 ]
  %129 = load i32, ptr %12, align 4
  %130 = add nsw i32 %129, %128
  store i32 %130, ptr %12, align 4
  %131 = load ptr, ptr %11, align 8
  %132 = getelementptr inbounds %struct.Sbd_Str_t_, ptr %131, i32 1
  store ptr %132, ptr %11, align 8
  br label %21, !llvm.loop !15

133:                                              ; preds = %21
  ret void
}