; Function Attrs: nounwind uwtable
define void @Sbd_ProblemAddClausesInit(ptr noundef %0, i32 noundef %1, i32 noundef %2, ptr noundef readonly captures(none) %3, ptr noundef readonly %4) local_unnamed_addr #1 {
  %6 = alloca [10 x i32], align 16
  %7 = sext i32 %2 to i64
  %8 = getelementptr inbounds %struct.Sbd_Str_t_, ptr %4, i64 %7
  %9 = icmp sgt i32 %2, 0
  br i1 %9, label %.lr.ph55, label %._crit_edge56

.lr.ph55:                                         ; preds = %5
  %10 = add nsw i32 %2, %1
  %11 = getelementptr inbounds nuw i8, ptr %6, i64 4
  %12 = getelementptr inbounds nuw i8, ptr %6, i64 8
  br label %13

13:                                               ; preds = %.lr.ph55, %47
  %.03551 = phi i32 [ %10, %.lr.ph55 ], [ %49, %47 ]
  %.03649 = phi ptr [ %4, %.lr.ph55 ], [ %50, %47 ]
  %14 = load i32, ptr %.03649, align 8
  %.not = icmp eq i32 %14, 0
  %15 = getelementptr inbounds nuw i8, ptr %.03649, i64 4
  %16 = load i32, ptr %15, align 4
  br i1 %.not, label %.preheader, label %.thread

.preheader:                                       ; preds = %13
  %17 = icmp sgt i32 %16, 0
  br i1 %17, label %.lr.ph.preheader, label %._crit_edge

.lr.ph.preheader:                                 ; preds = %.preheader
  %18 = sext i32 %.03551 to i64
  %wide.trip.count = zext nneg i32 %16 to i64
  %invariant.gep = getelementptr i32, ptr %3, i64 %18
  br label %.lr.ph

.lr.ph:                                           ; preds = %.lr.ph.preheader, %.lr.ph
  %indvars.iv = phi i64 [ 0, %.lr.ph.preheader ], [ %indvars.iv.next, %.lr.ph ]
  %gep = getelementptr i32, ptr %invariant.gep, i64 %indvars.iv
  %19 = load i32, ptr %gep, align 4
  %20 = shl nsw i32 %19, 1
  %21 = getelementptr inbounds nuw [10 x i32], ptr %6, i64 0, i64 %indvars.iv
  store i32 %20, ptr %21, align 4
  %indvars.iv.next = add nuw nsw i64 %indvars.iv, 1
  %exitcond.not = icmp eq i64 %indvars.iv.next, %wide.trip.count
  br i1 %exitcond.not, label %._crit_edge, label %.lr.ph, !llvm.loop !12

._crit_edge:                                      ; preds = %.lr.ph, %.preheader
  %22 = sext i32 %16 to i64
  %23 = getelementptr inbounds i32, ptr %6, i64 %22
  %24 = call i32 @sat_solver_addclause(ptr noundef %0, ptr noundef nonnull %6, ptr noundef nonnull %23) #15
  %25 = load i32, ptr %15, align 4
  %26 = icmp sgt i32 %25, 0
  br i1 %26, label %.lr.ph47.preheader, label %._crit_edge48

.lr.ph47.preheader:                               ; preds = %._crit_edge
  %27 = sext i32 %.03551 to i64
  %invariant.gep70 = getelementptr i32, ptr %3, i64 %27
  %invariant.gep68 = getelementptr i32, ptr %3, i64 %27
  br label %.lr.ph47

.loopexit:                                        ; preds = %33, %.lr.ph47
  %.pre-phi = phi i64 [ %31, %.lr.ph47 ], [ %42, %33 ]
  %28 = phi i32 [ %30, %.lr.ph47 ], [ %41, %33 ]
  %29 = icmp slt i64 %indvars.iv.next64, %.pre-phi
  %indvars.iv.next59 = add nuw nsw i64 %indvars.iv58, 1
  br i1 %29, label %.lr.ph47, label %._crit_edge48, !llvm.loop !13

.lr.ph47:                                         ; preds = %.lr.ph47.preheader, %.loopexit
  %30 = phi i32 [ %25, %.lr.ph47.preheader ], [ %28, %.loopexit ]
  %indvars.iv63 = phi i64 [ 0, %.lr.ph47.preheader ], [ %indvars.iv.next64, %.loopexit ]
  %indvars.iv58 = phi i64 [ 1, %.lr.ph47.preheader ], [ %indvars.iv.next59, %.loopexit ]
  %indvars.iv.next64 = add nuw nsw i64 %indvars.iv63, 1
  %31 = sext i32 %30 to i64
  %32 = icmp slt i64 %indvars.iv.next64, %31
  br i1 %32, label %.lr.ph44, label %.loopexit

.lr.ph44:                                         ; preds = %.lr.ph47
  %gep71 = getelementptr i32, ptr %invariant.gep70, i64 %indvars.iv63
  br label %33

33:                                               ; preds = %.lr.ph44, %33
  %indvars.iv60 = phi i64 [ %indvars.iv58, %.lr.ph44 ], [ %indvars.iv.next61, %33 ]
  %34 = load i32, ptr %gep71, align 4
  %35 = shl nsw i32 %34, 1
  %36 = or disjoint i32 %35, 1
  store i32 %36, ptr %6, align 16
  %gep69 = getelementptr i32, ptr %invariant.gep68, i64 %indvars.iv60
  %37 = load i32, ptr %gep69, align 4
  %38 = shl nsw i32 %37, 1
  %39 = or disjoint i32 %38, 1
  store i32 %39, ptr %11, align 4
  %40 = call i32 @sat_solver_addclause(ptr noundef %0, ptr noundef nonnull %6, ptr noundef nonnull %12) #15
  %indvars.iv.next61 = add nuw nsw i64 %indvars.iv60, 1
  %41 = load i32, ptr %15, align 4
  %42 = sext i32 %41 to i64
  %43 = icmp slt i64 %indvars.iv.next61, %42
  br i1 %43, label %33, label %.loopexit, !llvm.loop !14

._crit_edge48:                                    ; preds = %.loopexit, %._crit_edge
  %44 = phi i32 [ %25, %._crit_edge ], [ %28, %.loopexit ]
  %.pr = load i32, ptr %.03649, align 8
  %.not38 = icmp eq i32 %.pr, 0
  br i1 %.not38, label %47, label %.thread

.thread:                                          ; preds = %13, %._crit_edge48
  %45 = phi i32 [ %44, %._crit_edge48 ], [ %16, %13 ]
  %46 = shl nuw i32 1, %45
  br label %47

47:                                               ; preds = %._crit_edge48, %.thread
  %48 = phi i32 [ %46, %.thread ], [ %44, %._crit_edge48 ]
  %49 = add nsw i32 %48, %.03551
  %50 = getelementptr inbounds nuw i8, ptr %.03649, i64 56
  %51 = icmp ult ptr %50, %8
  br i1 %51, label %13, label %._crit_edge56, !llvm.loop !15

._crit_edge56:                                    ; preds = %47, %5
  ret void
}